; Function Attrs: nounwind uwtable
define dso_local nonnull ptr @psql_yy_scan_bytes(ptr noundef readonly captures(none) %0, i32 noundef %1, ptr noundef captures(none) %2) local_unnamed_addr #0 {
  %4 = add i32 %1, 2
  %5 = sext i32 %4 to i64
  %6 = tail call noalias noundef ptr @malloc(i64 noundef %5) #24
  %.not = icmp eq ptr %6, null
  br i1 %.not, label %14, label %.preheader

.preheader:                                       ; preds = %3
  %7 = icmp sgt i32 %1, 0
  br i1 %7, label %._crit_edge.thread, label %._crit_edge

._crit_edge.thread:                               ; preds = %.preheader
  %8 = zext nneg i32 %1 to i64
  tail call void @llvm.memcpy.p0.p0.i64(ptr nonnull align 1 %6, ptr align 1 %0, i64 %8, i1 false)
  %9 = add nuw i32 %1, 1
  %10 = sext i32 %9 to i64
  %11 = getelementptr inbounds i8, ptr %6, i64 %10
  store i8 0, ptr %11, align 1
  %12 = zext nneg i32 %1 to i64
  %13 = getelementptr inbounds nuw i8, ptr %6, i64 %12
  store i8 0, ptr %13, align 1
  br label %21

14:                                               ; preds = %3
  tail call fastcc void @yy_fatal_error(ptr noundef nonnull @.str.15) #25
  unreachable

._crit_edge:                                      ; preds = %.preheader
  %15 = sext i32 %1 to i64
  %16 = getelementptr i8, ptr %6, i64 %15
  %17 = getelementptr i8, ptr %16, i64 1
  store i8 0, ptr %17, align 1
  %18 = sext i32 %1 to i64
  %19 = getelementptr inbounds i8, ptr %6, i64 %18
  store i8 0, ptr %19, align 1
  %20 = icmp ugt i32 %1, -3
  br i1 %20, label %32, label %21

21:                                               ; preds = %._crit_edge.thread, %._crit_edge
  %22 = add nsw i64 %5, -2
  %23 = getelementptr inbounds nuw i8, ptr %6, i64 %22
  %24 = load i8, ptr %23, align 1
  %.not.i = icmp eq i8 %24, 0
  br i1 %.not.i, label %25, label %32

25:                                               ; preds = %21
  %26 = getelementptr i8, ptr %6, i64 %5
  %27 = getelementptr i8, ptr %26, i64 -1
  %28 = load i8, ptr %27, align 1
  %.not26.i = icmp eq i8 %28, 0
  br i1 %.not26.i, label %29, label %32

29:                                               ; preds = %25
  %30 = tail call noalias noundef dereferenceable_or_null(64) ptr @malloc(i64 noundef 64) #24
  %.not27.i = icmp eq ptr %30, null
  br i1 %.not27.i, label %31, label %33

31:                                               ; preds = %29
  tail call fastcc void @yy_fatal_error(ptr noundef nonnull @.str.14) #25
  unreachable

32:                                               ; preds = %25, %21, %._crit_edge
  tail call fastcc void @yy_fatal_error(ptr noundef nonnull @.str.16) #25
  unreachable

33:                                               ; preds = %29
  %34 = trunc i64 %22 to i32
  %35 = getelementptr inbounds nuw i8, ptr %30, i64 24
  store i32 %34, ptr %35, align 8
  %36 = getelementptr inbounds nuw i8, ptr %30, i64 8
  store ptr %6, ptr %36, align 8
  %37 = getelementptr inbounds nuw i8, ptr %30, i64 16
  store ptr %6, ptr %37, align 8
  %38 = getelementptr inbounds nuw i8, ptr %30, i64 32
  store i32 0, ptr %38, align 8
  store ptr null, ptr %30, align 8
  %39 = getelementptr inbounds nuw i8, ptr %30, i64 28
  store i32 %34, ptr %39, align 4
  %40 = getelementptr inbounds nuw i8, ptr %30, i64 36
  store i32 0, ptr %40, align 4
  %41 = getelementptr inbounds nuw i8, ptr %30, i64 40
  store i32 1, ptr %41, align 8
  %42 = getelementptr inbounds nuw i8, ptr %30, i64 52
  store i32 0, ptr %42, align 4
  %43 = getelementptr inbounds nuw i8, ptr %30, i64 56
  store i32 0, ptr %43, align 8
  tail call void @psql_yy_switch_to_buffer(ptr noundef nonnull %30, ptr noundef %2)
  store i32 1, ptr %38, align 8
  ret ptr %30
}